; Function Attrs: nounwind uwtable
define dso_local void @sapi_deactivate_module() local_unnamed_addr #0 {
  %1 = alloca [16384 x i8], align 16
  tail call void @zend_llist_destroy(ptr noundef nonnull getelementptr inbounds nuw (i8, ptr @sapi_globals, i64 160)) #19
  %2 = load ptr, ptr getelementptr inbounds nuw (i8, ptr @sapi_globals, i64 56), align 8, !tbaa !96
  %.not = icmp eq ptr %2, null
  br i1 %.not, label %4, label %3

3:                                                ; preds = %0
  store ptr null, ptr getelementptr inbounds nuw (i8, ptr @sapi_globals, i64 56), align 8, !tbaa !96
  br label %19

4:                                                ; preds = %0
  %5 = load ptr, ptr @sapi_globals, align 8, !tbaa !108
  %6 = icmp eq ptr %5, null
  %7 = load i8, ptr getelementptr inbounds nuw (i8, ptr @sapi_globals, i64 248), align 8
  %8 = icmp ne i8 %7, 0
  %or.cond = select i1 %6, i1 true, i1 %8
  br i1 %or.cond, label %19, label %9

9:                                                ; preds = %4
  call void @llvm.lifetime.start.p0(i64 16384, ptr nonnull %1) #19
  br label %10

10:                                               ; preds = %sapi_read_post_block.exit, %9
  %11 = load ptr, ptr getelementptr inbounds nuw (i8, ptr @sapi_module, i64 112), align 8, !tbaa !85
  %.not.i = icmp eq ptr %11, null
  br i1 %.not.i, label %sapi_read_post_block.exit.thread, label %12

12:                                               ; preds = %10
  %13 = call i64 %11(ptr noundef nonnull %1, i64 noundef 16384) #19
  %.not9.i = icmp eq i64 %13, 0
  br i1 %.not9.i, label %.thread, label %14

14:                                               ; preds = %12
  %15 = load i64, ptr getelementptr inbounds nuw (i8, ptr @sapi_globals, i64 240), align 8, !tbaa !86
  %16 = add i64 %15, %13
  store i64 %16, ptr getelementptr inbounds nuw (i8, ptr @sapi_globals, i64 240), align 8, !tbaa !86
  %17 = icmp ult i64 %13, 16384
  br i1 %17, label %.thread, label %sapi_read_post_block.exit

.thread:                                          ; preds = %12, %14
  store i8 1, ptr getelementptr inbounds nuw (i8, ptr @sapi_globals, i64 248), align 8, !tbaa !87
  br label %sapi_read_post_block.exit.thread

sapi_read_post_block.exit:                        ; preds = %14
  %18 = icmp eq i64 %13, 16384
  br i1 %18, label %10, label %sapi_read_post_block.exit.thread

sapi_read_post_block.exit.thread:                 ; preds = %10, %sapi_read_post_block.exit, %.thread
  call void @llvm.lifetime.end.p0(i64 16384, ptr nonnull %1) #19
  br label %19

19:                                               ; preds = %4, %sapi_read_post_block.exit.thread, %3
  %20 = load ptr, ptr getelementptr inbounds nuw (i8, ptr @sapi_globals, i64 96), align 8, !tbaa !117
  %.not7 = icmp eq ptr %20, null
  br i1 %.not7, label %22, label %21

21:                                               ; preds = %19
  call void @_efree(ptr noundef nonnull %20) #19
  store ptr null, ptr getelementptr inbounds nuw (i8, ptr @sapi_globals, i64 96), align 8, !tbaa !117
  br label %22

22:                                               ; preds = %21, %19
  %23 = load ptr, ptr getelementptr inbounds nuw (i8, ptr @sapi_globals, i64 104), align 8, !tbaa !118
  %.not8 = icmp eq ptr %23, null
  br i1 %.not8, label %25, label %24

24:                                               ; preds = %22
  call void @_efree(ptr noundef nonnull %23) #19
  store ptr null, ptr getelementptr inbounds nuw (i8, ptr @sapi_globals, i64 104), align 8, !tbaa !118
  br label %25

25:                                               ; preds = %24, %22
  %26 = load ptr, ptr getelementptr inbounds nuw (i8, ptr @sapi_globals, i64 112), align 8, !tbaa !119
  %.not9 = icmp eq ptr %26, null
  br i1 %.not9, label %28, label %27

27:                                               ; preds = %25
  call void @_efree(ptr noundef nonnull %26) #19
  store ptr null, ptr getelementptr inbounds nuw (i8, ptr @sapi_globals, i64 112), align 8, !tbaa !119
  br label %28

28:                                               ; preds = %27, %25
  %29 = load ptr, ptr getelementptr inbounds nuw (i8, ptr @sapi_globals, i64 88), align 8, !tbaa !76
  %.not10 = icmp eq ptr %29, null
  br i1 %.not10, label %31, label %30

30:                                               ; preds = %28
  call void @_efree(ptr noundef nonnull %29) #19
  br label %31

31:                                               ; preds = %30, %28
  %32 = load ptr, ptr getelementptr inbounds nuw (i8, ptr @sapi_globals, i64 128), align 8, !tbaa !102
  %.not11 = icmp eq ptr %32, null
  br i1 %.not11, label %34, label %33

33:                                               ; preds = %31
  call void @_efree(ptr noundef nonnull %32) #19
  br label %34

34:                                               ; preds = %33, %31
  %35 = load ptr, ptr getelementptr inbounds nuw (i8, ptr @sapi_module, i64 40), align 8, !tbaa !120
  %.not12 = icmp eq ptr %35, null
  br i1 %.not12, label %38, label %36

36:                                               ; preds = %34
  %37 = call i32 %35() #19
  br label %38

38:                                               ; preds = %36, %34
  ret void
}